; Function Attrs: mustprogress uwtable
define void @_ZN11WelcomePage20on_helpLabel_clickedEv(ptr nocapture noundef nonnull readnone align 8 dereferenceable(112) %0) local_unnamed_addr #0 align 2 personality ptr @__gxx_personality_v0 {
  %2 = alloca %class.QString, align 16
  %3 = alloca %class.QUrl, align 8
  %4 = alloca %class.QString, align 16
  call void @llvm.lifetime.start.p0(i64 24, ptr nonnull %2)
  call void @_ZN7QString8fromUtf8E14QByteArrayView(ptr dead_on_unwind nonnull writable sret(%class.QString) align 8 %2, i64 31, ptr nonnull @.str.44)
  %5 = load <2 x ptr>, ptr %2, align 16
  store <2 x ptr> %5, ptr %4, align 16
  %6 = getelementptr inbounds i8, ptr %4, i64 16
  %7 = getelementptr inbounds i8, ptr %2, i64 16
  %8 = load i64, ptr %7, align 16
  store i64 %8, ptr %6, align 16
  call void @llvm.lifetime.end.p0(i64 24, ptr nonnull %2)
  invoke void @_ZN4QUrlC1ERK7QStringNS_11ParsingModeE(ptr noundef nonnull align 8 dereferenceable(8) %3, ptr noundef nonnull align 8 dereferenceable(24) %4, i32 noundef 0)
          to label %9 unwind label %16

9:                                                ; preds = %1
  %10 = invoke noundef zeroext i1 @_ZN16QDesktopServices7openUrlERK4QUrl(ptr noundef nonnull align 8 dereferenceable(8) %3)
          to label %11 unwind label %18

11:                                               ; preds = %9
  call void @_ZN4QUrlD1Ev(ptr noundef nonnull align 8 dereferenceable(8) %3) #18
  %12 = load ptr, ptr %4, align 16
  %.not.i.i.i = icmp eq ptr %12, null
  br i1 %.not.i.i.i, label %_ZN7QStringD2Ev.exit, label %_ZN17QArrayDataPointerIDsE5derefEv.exit.i.i

_ZN17QArrayDataPointerIDsE5derefEv.exit.i.i:      ; preds = %11
  %13 = atomicrmw sub ptr %12, i32 1 seq_cst, align 4
  %.not.i.i = icmp eq i32 %13, 1
  br i1 %.not.i.i, label %14, label %_ZN7QStringD2Ev.exit

14:                                               ; preds = %_ZN17QArrayDataPointerIDsE5derefEv.exit.i.i
  %15 = load ptr, ptr %4, align 16
  call void @_ZN10QArrayData10deallocateEPS_xx(ptr noundef %15, i64 noundef 2, i64 noundef 8) #18
  br label %_ZN7QStringD2Ev.exit

_ZN7QStringD2Ev.exit:                             ; preds = %11, %_ZN17QArrayDataPointerIDsE5derefEv.exit.i.i, %14
  ret void

16:                                               ; preds = %1
  %17 = landingpad { ptr, i32 }
          cleanup
  br label %20

18:                                               ; preds = %9
  %19 = landingpad { ptr, i32 }
          cleanup
  call void @_ZN4QUrlD1Ev(ptr noundef nonnull align 8 dereferenceable(8) %3) #18
  br label %20

20:                                               ; preds = %18, %16
  %.pn = phi { ptr, i32 } [ %19, %18 ], [ %17, %16 ]
  %21 = load ptr, ptr %4, align 16
  %.not.i.i.i3 = icmp eq ptr %21, null
  br i1 %.not.i.i.i3, label %_ZN7QStringD2Ev.exit6, label %_ZN17QArrayDataPointerIDsE5derefEv.exit.i.i4

_ZN17QArrayDataPointerIDsE5derefEv.exit.i.i4:     ; preds = %20
  %22 = atomicrmw sub ptr %21, i32 1 seq_cst, align 4
  %.not.i.i5 = icmp eq i32 %22, 1
  br i1 %.not.i.i5, label %23, label %_ZN7QStringD2Ev.exit6

23:                                               ; preds = %_ZN17QArrayDataPointerIDsE5derefEv.exit.i.i4
  %24 = load ptr, ptr %4, align 16
  call void @_ZN10QArrayData10deallocateEPS_xx(ptr noundef %24, i64 noundef 2, i64 noundef 8) #18
  br label %_ZN7QStringD2Ev.exit6

_ZN7QStringD2Ev.exit6:                            ; preds = %20, %_ZN17QArrayDataPointerIDsE5derefEv.exit.i.i4, %23
  resume { ptr, i32 } %.pn
}